target datalayout = "e-m:e-p270:32:32-p271:32:32-p272:64:64-i64:64-i128:128-f80:128-n8:16:32:64-S128"
target triple = "x86_64-unknown-linux-gnu"

%"struct.grpc_core::arena_promise_detail::Vtable" = type { ptr, ptr }
%"class.grpc_core::ArenaPromise" = type { %"struct.grpc_core::arena_promise_detail::VtableAndArg" }
%"struct.grpc_core::arena_promise_detail::VtableAndArg" = type { ptr, [8 x i8], %"struct.grpc_core::arena_promise_detail::ArgType" }
%"struct.grpc_core::arena_promise_detail::ArgType" = type { [8 x i8], [8 x i8] }
%"class.grpc_core::promise_detail::Map" = type { %"class.grpc_core::promise_detail::PromiseLike", %class.anon, [8 x i8] }
%"class.grpc_core::promise_detail::PromiseLike" = type { %"class.grpc_core::ArenaPromise" }
%class.anon = type { ptr }

; Function Attrs: mustprogress nounwind uwtable
define linkonce_odr void @_ZN9grpc_core12ArenaPromiseISt10unique_ptrI19grpc_metadata_batchNS_5Arena13PooledDeleterEEED2Ev(ptr noundef nonnull align 16 dereferenceable(32) %this) unnamed_addr #5 comdat align 2 personality ptr @__gxx_personality_v0 {
entry:
  %this.addr = alloca ptr, align 8
  store ptr %this, ptr %this.addr, align 8
  %this1 = load ptr, ptr %this.addr, align 8
  %vtable_and_arg_ = getelementptr inbounds %"class.grpc_core::ArenaPromise", ptr %this1, i32 0, i32 0
  %vtable = getelementptr inbounds %"struct.grpc_core::arena_promise_detail::VtableAndArg", ptr %vtable_and_arg_, i32 0, i32 0
  %0 = load ptr, ptr %vtable, align 16
  %destroy = getelementptr inbounds %"struct.grpc_core::arena_promise_detail::Vtable", ptr %0, i32 0, i32 1
  %1 = load ptr, ptr %destroy, align 8
  %vtable_and_arg_2 = getelementptr inbounds %"class.grpc_core::ArenaPromise", ptr %this1, i32 0, i32 0
  %arg = getelementptr inbounds %"struct.grpc_core::arena_promise_detail::VtableAndArg", ptr %vtable_and_arg_2, i32 0, i32 2
  invoke void %1(ptr noundef %arg)
          to label %invoke.cont unwind label %terminate.lpad

invoke.cont:                                      ; preds = %entry
  ret void

terminate.lpad:                                   ; preds = %entry
  %2 = landingpad { ptr, i32 }
          catch ptr null
  %3 = extractvalue { ptr, i32 } %2, 0
  call void @__clang_call_terminate(ptr %3) #17
  unreachable
}

; Function Attrs: mustprogress nounwind uwtable
define linkonce_odr void @_ZN9grpc_core14promise_detail11PromiseLikeINS_12ArenaPromiseISt10unique_ptrI19grpc_metadata_batchNS_5Arena13PooledDeleterEEEEvED2Ev(ptr noundef nonnull align 16 dereferenceable(32) %this) unnamed_addr #5 comdat align 2 {
entry:
  %this.addr = alloca ptr, align 8
  store ptr %this, ptr %this.addr, align 8
  %this1 = load ptr, ptr %this.addr, align 8
  %f_ = getelementptr inbounds %"class.grpc_core::promise_detail::PromiseLike", ptr %this1, i32 0, i32 0
  call void @_ZN9grpc_core12ArenaPromiseISt10unique_ptrI19grpc_metadata_batchNS_5Arena13PooledDeleterEEED2Ev(ptr noundef nonnull align 16 dereferenceable(32) %f_) #3
  ret void
}

; Function Attrs: mustprogress nounwind uwtable
define internal void @"_ZN9grpc_core14promise_detail3MapINS_12ArenaPromiseISt10unique_ptrI19grpc_metadata_batchNS_5Arena13PooledDeleterEEEEZNS_19BackendMetricFilter15MakeCallPromiseENS_8CallArgsESt8functionIFS8_SA_EEE3$_0ED2Ev"(ptr noundef nonnull align 16 dereferenceable(40) %this) unnamed_addr #5 align 2 {
entry:
  %this.addr = alloca ptr, align 8
  store ptr %this, ptr %this.addr, align 8
  %this1 = load ptr, ptr %this.addr, align 8
  %promise_ = getelementptr inbounds %"class.grpc_core::promise_detail::Map", ptr %this1, i32 0, i32 0
  call void @_ZN9grpc_core14promise_detail11PromiseLikeINS_12ArenaPromiseISt10unique_ptrI19grpc_metadata_batchNS_5Arena13PooledDeleterEEEEvED2Ev(ptr noundef nonnull align 16 dereferenceable(32) %promise_) #3
  ret void
}

; Function Attrs: mustprogress nounwind uwtable
define internal void @"_ZN9grpc_core8DestructINS_14promise_detail3MapINS_12ArenaPromiseISt10unique_ptrI19grpc_metadata_batchNS_5Arena13PooledDeleterEEEEZNS_19BackendMetricFilter15MakeCallPromiseENS_8CallArgsESt8functionIFS9_SB_EEE3$_0EEEEvPT_"(ptr noundef %p) #5 {
entry:
  %p.addr = alloca ptr, align 8
  store ptr %p, ptr %p.addr, align 8
  %0 = load ptr, ptr %p.addr, align 8
  call void @"_ZN9grpc_core14promise_detail3MapINS_12ArenaPromiseISt10unique_ptrI19grpc_metadata_batchNS_5Arena13PooledDeleterEEEEZNS_19BackendMetricFilter15MakeCallPromiseENS_8CallArgsESt8functionIFS8_SA_EEE3$_0ED2Ev"(ptr noundef nonnull align 16 dereferenceable(40) %0) #3
  ret void
}

; Function Attrs: mustprogress nounwind uwtable
define internal noundef nonnull align 8 dereferenceable(8) ptr @"_ZN9grpc_core20arena_promise_detail8ArgAsPtrINS_14promise_detail3MapINS_12ArenaPromiseISt10unique_ptrI19grpc_metadata_batchNS_5Arena13PooledDeleterEEEEZNS_19BackendMetricFilter15MakeCallPromiseENS_8CallArgsESt8functionIFSA_SC_EEE3$_0EEEERPT_PNS0_7ArgTypeE"(ptr noundef %arg) #5 {
entry:
  %arg.addr = alloca ptr, align 8
  store ptr %arg, ptr %arg.addr, align 8
  %0 = load ptr, ptr %arg.addr, align 8
  ret ptr %0
}

; Function Attrs: mustprogress uwtable
define internal void @"_ZN9grpc_core20arena_promise_detail17AllocatedCallableISt10unique_ptrI19grpc_metadata_batchNS_5Arena13PooledDeleterEENS_14promise_detail3MapINS_12ArenaPromiseIS6_EEZNS_19BackendMetricFilter15MakeCallPromiseENS_8CallArgsESt8functionIFSA_SC_EEE3$_0EEE7DestroyEPNS0_7ArgTypeE"(ptr noundef %arg) #4 align 2 {
entry:
  %arg.addr = alloca ptr, align 8
  store ptr %arg, ptr %arg.addr, align 8
  %0 = load ptr, ptr %arg.addr, align 8
  %call = call noundef nonnull align 8 dereferenceable(8) ptr @"_ZN9grpc_core20arena_promise_detail8ArgAsPtrINS_14promise_detail3MapINS_12ArenaPromiseISt10unique_ptrI19grpc_metadata_batchNS_5Arena13PooledDeleterEEEEZNS_19BackendMetricFilter15MakeCallPromiseENS_8CallArgsESt8functionIFSA_SC_EEE3$_0EEEERPT_PNS0_7ArgTypeE"(ptr noundef %0)
  %1 = load ptr, ptr %call, align 8
  call void @"_ZN9grpc_core8DestructINS_14promise_detail3MapINS_12ArenaPromiseISt10unique_ptrI19grpc_metadata_batchNS_5Arena13PooledDeleterEEEEZNS_19BackendMetricFilter15MakeCallPromiseENS_8CallArgsESt8functionIFS9_SB_EEE3$_0EEEEvPT_"(ptr noundef %1)
  ret void
}