; Function Attrs: mustprogress uwtable
define internal void @"_ZN9grpc_core20arena_promise_detail17AllocatedCallableISt10unique_ptrI19grpc_metadata_batchNS_5Arena13PooledDeleterEENS_14promise_detail3MapINS_12ArenaPromiseIS6_EEZNS_19BackendMetricFilter15MakeCallPromiseENS_8CallArgsESt8functionIFSA_SC_EEE3$_0EEE7DestroyEPNS0_7ArgTypeE"(ptr nocapture noundef readonly %arg) #3 align 2 personality ptr @__gxx_personality_v0 {
entry:
  %0 = load ptr, ptr %arg, align 8
  %1 = load ptr, ptr %0, align 16
  %destroy.i.i.i.i = getelementptr inbounds i8, ptr %1, i64 8
  %2 = load ptr, ptr %destroy.i.i.i.i, align 8
  %arg.i.i.i.i = getelementptr inbounds i8, ptr %0, i64 16
  invoke void %2(ptr noundef nonnull %arg.i.i.i.i)
          to label %"_ZN9grpc_core8DestructINS_14promise_detail3MapINS_12ArenaPromiseISt10unique_ptrI19grpc_metadata_batchNS_5Arena13PooledDeleterEEEEZNS_19BackendMetricFilter15MakeCallPromiseENS_8CallArgsESt8functionIFS9_SB_EEE3$_0EEEEvPT_.exit" unwind label %terminate.lpad.i.i.i.i

terminate.lpad.i.i.i.i:                           ; preds = %entry
  %3 = landingpad { ptr, i32 }
          catch ptr null
  %4 = extractvalue { ptr, i32 } %3, 0
  tail call void @__clang_call_terminate(ptr %4) #22
  unreachable

"_ZN9grpc_core8DestructINS_14promise_detail3MapINS_12ArenaPromiseISt10unique_ptrI19grpc_metadata_batchNS_5Arena13PooledDeleterEEEEZNS_19BackendMetricFilter15MakeCallPromiseENS_8CallArgsESt8functionIFS9_SB_EEE3$_0EEEEvPT_.exit": ; preds = %entry
  ret void
}